; Function Attrs: nounwind uwtable
define ptr @l_Array_forIn_x27Unsafe_loop___at_Lean_MVarId_getMVarDependencies_go___spec__5___boxed(ptr noundef %0, ptr noundef %1, ptr noundef %2, ptr noundef %3, ptr noundef %4, ptr noundef %5, ptr noundef %6, ptr noundef %7, ptr noundef %8, ptr noundef %9, ptr noundef %10, ptr noundef %11, ptr noundef %12, ptr noundef %13) local_unnamed_addr #1 {
  %15 = ptrtoint ptr %0 to i64
  %16 = lshr i64 %15, 1
  %17 = trunc i64 %16 to i8
  %18 = and i64 %15, 1
  %.not = icmp eq i64 %18, 0
  br i1 %.not, label %19, label %lean_dec.exit35

19:                                               ; preds = %14
  %20 = load i32, ptr %0, align 4, !tbaa !4
  %21 = icmp sgt i32 %20, 1
  br i1 %21, label %22, label %24, !prof !11

22:                                               ; preds = %19
  %23 = add nsw i32 %20, -1
  store i32 %23, ptr %0, align 4, !tbaa !4
  br label %lean_dec.exit35

24:                                               ; preds = %19
  %.not.i = icmp eq i32 %20, 0
  br i1 %.not.i, label %lean_dec.exit35, label %25

25:                                               ; preds = %24
  tail call void @lean_dec_ref_cold(ptr noundef nonnull %0) #4
  br label %lean_dec.exit35

lean_dec.exit35:                                  ; preds = %25, %24, %22, %14
  %26 = getelementptr i8, ptr %5, i64 8
  %.val54 = load i64, ptr %26, align 8, !tbaa !12
  %27 = ptrtoint ptr %5 to i64
  %28 = and i64 %27, 1
  %.not55 = icmp eq i64 %28, 0
  br i1 %.not55, label %29, label %lean_dec.exit34

29:                                               ; preds = %lean_dec.exit35
  %30 = load i32, ptr %5, align 4, !tbaa !4
  %31 = icmp sgt i32 %30, 1
  br i1 %31, label %32, label %34, !prof !11

32:                                               ; preds = %29
  %33 = add nsw i32 %30, -1
  store i32 %33, ptr %5, align 4, !tbaa !4
  br label %lean_dec.exit34

34:                                               ; preds = %29
  %.not.i36 = icmp eq i32 %30, 0
  br i1 %.not.i36, label %lean_dec.exit34, label %35

35:                                               ; preds = %34
  tail call void @lean_dec_ref_cold(ptr noundef nonnull %5) #4
  br label %lean_dec.exit34

lean_dec.exit34:                                  ; preds = %35, %34, %32, %lean_dec.exit35
  %36 = getelementptr i8, ptr %6, i64 8
  %.val = load i64, ptr %36, align 8, !tbaa !12
  %37 = ptrtoint ptr %6 to i64
  %38 = and i64 %37, 1
  %.not56 = icmp eq i64 %38, 0
  br i1 %.not56, label %39, label %lean_dec.exit33

39:                                               ; preds = %lean_dec.exit34
  %40 = load i32, ptr %6, align 4, !tbaa !4
  %41 = icmp sgt i32 %40, 1
  br i1 %41, label %42, label %44, !prof !11

42:                                               ; preds = %39
  %43 = add nsw i32 %40, -1
  store i32 %43, ptr %6, align 4, !tbaa !4
  br label %lean_dec.exit33

44:                                               ; preds = %39
  %.not.i38 = icmp eq i32 %40, 0
  br i1 %.not.i38, label %lean_dec.exit33, label %45

45:                                               ; preds = %44
  tail call void @lean_dec_ref_cold(ptr noundef nonnull %6) #4
  br label %lean_dec.exit33

lean_dec.exit33:                                  ; preds = %45, %44, %42, %lean_dec.exit34
  %46 = tail call ptr @l_Array_forIn_x27Unsafe_loop___at_Lean_MVarId_getMVarDependencies_go___spec__5(i8 noundef zeroext %17, ptr poison, ptr poison, ptr noundef %3, ptr noundef %4, i64 noundef %.val54, i64 noundef %.val, ptr noundef %7, ptr noundef %8, ptr noundef %9, ptr noundef %10, ptr noundef %11, ptr noundef %12, ptr noundef %13)
  %47 = ptrtoint ptr %12 to i64
  %48 = and i64 %47, 1
  %.not57 = icmp eq i64 %48, 0
  br i1 %.not57, label %49, label %lean_dec.exit32

49:                                               ; preds = %lean_dec.exit33
  %50 = load i32, ptr %12, align 4, !tbaa !4
  %51 = icmp sgt i32 %50, 1
  br i1 %51, label %52, label %54, !prof !11

52:                                               ; preds = %49
  %53 = add nsw i32 %50, -1
  store i32 %53, ptr %12, align 4, !tbaa !4
  br label %lean_dec.exit32

54:                                               ; preds = %49
  %.not.i40 = icmp eq i32 %50, 0
  br i1 %.not.i40, label %lean_dec.exit32, label %55

55:                                               ; preds = %54
  tail call void @lean_dec_ref_cold(ptr noundef nonnull %12) #4
  br label %lean_dec.exit32

lean_dec.exit32:                                  ; preds = %55, %54, %52, %lean_dec.exit33
  %56 = ptrtoint ptr %10 to i64
  %57 = and i64 %56, 1
  %.not58 = icmp eq i64 %57, 0
  br i1 %.not58, label %58, label %lean_dec.exit31

58:                                               ; preds = %lean_dec.exit32
  %59 = load i32, ptr %10, align 4, !tbaa !4
  %60 = icmp sgt i32 %59, 1
  br i1 %60, label %61, label %63, !prof !11

61:                                               ; preds = %58
  %62 = add nsw i32 %59, -1
  store i32 %62, ptr %10, align 4, !tbaa !4
  br label %lean_dec.exit31

63:                                               ; preds = %58
  %.not.i42 = icmp eq i32 %59, 0
  br i1 %.not.i42, label %lean_dec.exit31, label %64

64:                                               ; preds = %63
  tail call void @lean_dec_ref_cold(ptr noundef nonnull %10) #4
  br label %lean_dec.exit31

lean_dec.exit31:                                  ; preds = %64, %63, %61, %lean_dec.exit32
  %65 = ptrtoint ptr %9 to i64
  %66 = and i64 %65, 1
  %.not59 = icmp eq i64 %66, 0
  br i1 %.not59, label %67, label %lean_dec.exit30

67:                                               ; preds = %lean_dec.exit31
  %68 = load i32, ptr %9, align 4, !tbaa !4
  %69 = icmp sgt i32 %68, 1
  br i1 %69, label %70, label %72, !prof !11

70:                                               ; preds = %67
  %71 = add nsw i32 %68, -1
  store i32 %71, ptr %9, align 4, !tbaa !4
  br label %lean_dec.exit30

72:                                               ; preds = %67
  %.not.i44 = icmp eq i32 %68, 0
  br i1 %.not.i44, label %lean_dec.exit30, label %73

73:                                               ; preds = %72
  tail call void @lean_dec_ref_cold(ptr noundef nonnull %9) #4
  br label %lean_dec.exit30

lean_dec.exit30:                                  ; preds = %73, %72, %70, %lean_dec.exit31
  %74 = ptrtoint ptr %8 to i64
  %75 = and i64 %74, 1
  %.not60 = icmp eq i64 %75, 0
  br i1 %.not60, label %76, label %lean_dec.exit29

76:                                               ; preds = %lean_dec.exit30
  %77 = load i32, ptr %8, align 4, !tbaa !4
  %78 = icmp sgt i32 %77, 1
  br i1 %78, label %79, label %81, !prof !11

79:                                               ; preds = %76
  %80 = add nsw i32 %77, -1
  store i32 %80, ptr %8, align 4, !tbaa !4
  br label %lean_dec.exit29

81:                                               ; preds = %76
  %.not.i46 = icmp eq i32 %77, 0
  br i1 %.not.i46, label %lean_dec.exit29, label %82

82:                                               ; preds = %81
  tail call void @lean_dec_ref_cold(ptr noundef nonnull %8) #4
  br label %lean_dec.exit29

lean_dec.exit29:                                  ; preds = %82, %81, %79, %lean_dec.exit30
  %83 = ptrtoint ptr %4 to i64
  %84 = and i64 %83, 1
  %.not61 = icmp eq i64 %84, 0
  br i1 %.not61, label %85, label %lean_dec.exit28

85:                                               ; preds = %lean_dec.exit29
  %86 = load i32, ptr %4, align 4, !tbaa !4
  %87 = icmp sgt i32 %86, 1
  br i1 %87, label %88, label %90, !prof !11

88:                                               ; preds = %85
  %89 = add nsw i32 %86, -1
  store i32 %89, ptr %4, align 4, !tbaa !4
  br label %lean_dec.exit28

90:                                               ; preds = %85
  %.not.i48 = icmp eq i32 %86, 0
  br i1 %.not.i48, label %lean_dec.exit28, label %91

91:                                               ; preds = %90
  tail call void @lean_dec_ref_cold(ptr noundef nonnull %4) #4
  br label %lean_dec.exit28

lean_dec.exit28:                                  ; preds = %91, %90, %88, %lean_dec.exit29
  %92 = ptrtoint ptr %2 to i64
  %93 = and i64 %92, 1
  %.not62 = icmp eq i64 %93, 0
  br i1 %.not62, label %94, label %lean_dec.exit27

94:                                               ; preds = %lean_dec.exit28
  %95 = load i32, ptr %2, align 4, !tbaa !4
  %96 = icmp sgt i32 %95, 1
  br i1 %96, label %97, label %99, !prof !11

97:                                               ; preds = %94
  %98 = add nsw i32 %95, -1
  store i32 %98, ptr %2, align 4, !tbaa !4
  br label %lean_dec.exit27

99:                                               ; preds = %94
  %.not.i50 = icmp eq i32 %95, 0
  br i1 %.not.i50, label %lean_dec.exit27, label %100

100:                                              ; preds = %99
  tail call void @lean_dec_ref_cold(ptr noundef nonnull %2) #4
  br label %lean_dec.exit27

lean_dec.exit27:                                  ; preds = %100, %99, %97, %lean_dec.exit28
  %101 = ptrtoint ptr %1 to i64
  %102 = and i64 %101, 1
  %.not63 = icmp eq i64 %102, 0
  br i1 %.not63, label %103, label %lean_dec.exit

103:                                              ; preds = %lean_dec.exit27
  %104 = load i32, ptr %1, align 4, !tbaa !4
  %105 = icmp sgt i32 %104, 1
  br i1 %105, label %106, label %108, !prof !11

106:                                              ; preds = %103
  %107 = add nsw i32 %104, -1
  store i32 %107, ptr %1, align 4, !tbaa !4
  br label %lean_dec.exit

108:                                              ; preds = %103
  %.not.i52 = icmp eq i32 %104, 0
  br i1 %.not.i52, label %lean_dec.exit, label %109

109:                                              ; preds = %108
  tail call void @lean_dec_ref_cold(ptr noundef nonnull %1) #4
  br label %lean_dec.exit

lean_dec.exit:                                    ; preds = %109, %108, %106, %lean_dec.exit27
  ret ptr %46
}